; ModuleID = '4/218.c'
source_filename = "4/218.c"
target datalayout = "e-m:e-p270:32:32-p271:32:32-p272:64:64-i64:64-f80:128-n8:16:32:64-S128"
target triple = "x86_64-pc-linux-gnu"

@.str = private unnamed_addr constant [5 x i8] c"%d%d\00", align 1
@.str.1 = private unnamed_addr constant [3 x i8] c"%d\00", align 1
@.str.2 = private unnamed_addr constant [4 x i8] c"%d\0A\00", align 1

; Function Attrs: noinline nounwind uwtable
define dso_local i32 @main() #0 {
  %1 = alloca i32, align 4
  %2 = alloca i32, align 4
  %3 = alloca i32, align 4
  %4 = alloca i32, align 4
  %5 = alloca i32, align 4
  %6 = alloca i32, align 4
  %7 = alloca [100 x [100 x i32]], align 16
  %8 = alloca i32, align 4
  %9 = alloca [10000 x i32], align 16
  %10 = alloca i32, align 4
  store i32 0, i32* %1, align 4
  store i32 1, i32* %2, align 4
  store i32 0, i32* %8, align 4
  %11 = call i32 (i8*, ...) @__isoc99_scanf(i8* getelementptr inbounds ([5 x i8], [5 x i8]* @.str, i64 0, i64 0), i32* %3, i32* %4)
  store i32 0, i32* %5, align 4
  br label %12

12:                                               ; preds = %33, %0
  %13 = load i32, i32* %5, align 4
  %14 = load i32, i32* %3, align 4
  %15 = icmp slt i32 %13, %14
  br i1 %15, label %16, label %36

16:                                               ; preds = %12
  store i32 0, i32* %6, align 4
  br label %17

17:                                               ; preds = %29, %16
  %18 = load i32, i32* %6, align 4
  %19 = load i32, i32* %4, align 4
  %20 = icmp slt i32 %18, %19
  br i1 %20, label %21, label %32

21:                                               ; preds = %17
  %22 = load i32, i32* %5, align 4
  %23 = sext i32 %22 to i64
  %24 = getelementptr inbounds [100 x [100 x i32]], [100 x [100 x i32]]* %7, i64 0, i64 %23
  %25 = load i32, i32* %6, align 4
  %26 = sext i32 %25 to i64
  %27 = getelementptr inbounds [100 x i32], [100 x i32]* %24, i64 0, i64 %26
  %28 = call i32 (i8*, ...) @__isoc99_scanf(i8* getelementptr inbounds ([3 x i8], [3 x i8]* @.str.1, i64 0, i64 0), i32* %27)
  br label %29

29:                                               ; preds = %21
  %30 = load i32, i32* %6, align 4
  %31 = add nsw i32 %30, 1
  store i32 %31, i32* %6, align 4
  br label %17

32:                                               ; preds = %17
  br label %33

33:                                               ; preds = %32
  %34 = load i32, i32* %5, align 4
  %35 = add nsw i32 %34, 1
  store i32 %35, i32* %5, align 4
  br label %12

36:                                               ; preds = %12
  store i32 1, i32* %2, align 4
  br label %37

37:                                               ; preds = %72, %36
  %38 = load i32, i32* %2, align 4
  %39 = load i32, i32* %4, align 4
  %40 = icmp sle i32 %38, %39
  br i1 %40, label %41, label %75

41:                                               ; preds = %37
  store i32 0, i32* %6, align 4
  %42 = load i32, i32* %2, align 4
  %43 = sub nsw i32 %42, 1
  store i32 %43, i32* %10, align 4
  br label %44

44:                                               ; preds = %66, %41
  %45 = load i32, i32* %10, align 4
  %46 = icmp sge i32 %45, 0
  br i1 %46, label %47, label %52

47:                                               ; preds = %44
  %48 = load i32, i32* %6, align 4
  %49 = load i32, i32* %3, align 4
  %50 = sub nsw i32 %49, 1
  %51 = icmp sle i32 %48, %50
  br label %52

52:                                               ; preds = %47, %44
  %53 = phi i1 [ false, %44 ], [ %51, %47 ]
  br i1 %53, label %54, label %71

54:                                               ; preds = %52
  %55 = load i32, i32* %6, align 4
  %56 = sext i32 %55 to i64
  %57 = getelementptr inbounds [100 x [100 x i32]], [100 x [100 x i32]]* %7, i64 0, i64 %56
  %58 = load i32, i32* %10, align 4
  %59 = sext i32 %58 to i64
  %60 = getelementptr inbounds [100 x i32], [100 x i32]* %57, i64 0, i64 %59
  %61 = load i32, i32* %60, align 4
  %62 = load i32, i32* %8, align 4
  %63 = add nsw i32 %62, 1
  store i32 %63, i32* %8, align 4
  %64 = sext i32 %62 to i64
  %65 = getelementptr inbounds [10000 x i32], [10000 x i32]* %9, i64 0, i64 %64
  store i32 %61, i32* %65, align 4
  br label %66

66:                                               ; preds = %54
  %67 = load i32, i32* %6, align 4
  %68 = add nsw i32 %67, 1
  store i32 %68, i32* %6, align 4
  %69 = load i32, i32* %10, align 4
  %70 = add nsw i32 %69, -1
  store i32 %70, i32* %10, align 4
  br label %44

71:                                               ; preds = %52
  br label %72

72:                                               ; preds = %71
  %73 = load i32, i32* %2, align 4
  %74 = add nsw i32 %73, 1
  store i32 %74, i32* %2, align 4
  br label %37

75:                                               ; preds = %37
  store i32 2, i32* %2, align 4
  br label %76

76:                                               ; preds = %113, %75
  %77 = load i32, i32* %2, align 4
  %78 = load i32, i32* %3, align 4
  %79 = icmp sle i32 %77, %78
  br i1 %79, label %80, label %116

80:                                               ; preds = %76
  %81 = load i32, i32* %2, align 4
  %82 = sub nsw i32 %81, 1
  store i32 %82, i32* %6, align 4
  %83 = load i32, i32* %4, align 4
  %84 = sub nsw i32 %83, 1
  store i32 %84, i32* %10, align 4
  br label %85

85:                                               ; preds = %107, %80
  %86 = load i32, i32* %6, align 4
  %87 = load i32, i32* %3, align 4
  %88 = sub nsw i32 %87, 1
  %89 = icmp sle i32 %86, %88
  br i1 %89, label %90, label %93

90:                                               ; preds = %85
  %91 = load i32, i32* %10, align 4
  %92 = icmp sge i32 %91, 0
  br label %93

93:                                               ; preds = %90, %85
  %94 = phi i1 [ false, %85 ], [ %92, %90 ]
  br i1 %94, label %95, label %112

95:                                               ; preds = %93
  %96 = load i32, i32* %6, align 4
  %97 = sext i32 %96 to i64
  %98 = getelementptr inbounds [100 x [100 x i32]], [100 x [100 x i32]]* %7, i64 0, i64 %97
  %99 = load i32, i32* %10, align 4
  %100 = sext i32 %99 to i64
  %101 = getelementptr inbounds [100 x i32], [100 x i32]* %98, i64 0, i64 %100
  %102 = load i32, i32* %101, align 4
  %103 = load i32, i32* %8, align 4
  %104 = add nsw i32 %103, 1
  store i32 %104, i32* %8, align 4
  %105 = sext i32 %103 to i64
  %106 = getelementptr inbounds [10000 x i32], [10000 x i32]* %9, i64 0, i64 %105
  store i32 %102, i32* %106, align 4
  br label %107

107:                                              ; preds = %95
  %108 = load i32, i32* %6, align 4
  %109 = add nsw i32 %108, 1
  store i32 %109, i32* %6, align 4
  %110 = load i32, i32* %10, align 4
  %111 = add nsw i32 %110, -1
  store i32 %111, i32* %10, align 4
  br label %85

112:                                              ; preds = %93
  br label %113

113:                                              ; preds = %112
  %114 = load i32, i32* %2, align 4
  %115 = add nsw i32 %114, 1
  store i32 %115, i32* %2, align 4
  br label %76

116:                                              ; preds = %76
  store i32 0, i32* %5, align 4
  br label %117

117:                                              ; preds = %127, %116
  %118 = load i32, i32* %5, align 4
  %119 = load i32, i32* %8, align 4
  %120 = icmp slt i32 %118, %119
  br i1 %120, label %121, label %130

121:                                              ; preds = %117
  %122 = load i32, i32* %5, align 4
  %123 = sext i32 %122 to i64
  %124 = getelementptr inbounds [10000 x i32], [10000 x i32]* %9, i64 0, i64 %123
  %125 = load i32, i32* %124, align 4
  %126 = call i32 (i8*, ...) @printf(i8* getelementptr inbounds ([4 x i8], [4 x i8]* @.str.2, i64 0, i64 0), i32 %125)
  br label %127

127:                                              ; preds = %121
  %128 = load i32, i32* %5, align 4
  %129 = add nsw i32 %128, 1
  store i32 %129, i32* %5, align 4
  br label %117

130:                                              ; preds = %117
  ret i32 0
}

declare dso_local i32 @__isoc99_scanf(i8*, ...) #1

declare dso_local i32 @printf(i8*, ...) #1


!llvm.module.flags = !{!0}
!llvm.ident = !{!1}

!0 = !{i32 1, !"wchar_size", i32 4}
!1 = !{!"clang version 10.0.0-4ubuntu1 "}
